target datalayout = "e-m:e-p270:32:32-p271:32:32-p272:64:64-i64:64-i128:128-f80:128-n8:16:32:64-S128"
target triple = "x86_64-pc-linux-gnu"

; Function Attrs: nounwind uwtable
define internal zeroext i1 @WildcardMatch(ptr noundef %0, ptr noundef %1, ptr noundef %2) #0 {
  %4 = alloca i1, align 1
  %5 = alloca ptr, align 8
  %6 = alloca ptr, align 8
  %7 = alloca ptr, align 8
  %8 = alloca ptr, align 8
  %9 = alloca ptr, align 8
  %10 = alloca i8, align 1
  %11 = alloca i8, align 1
  %12 = alloca i8, align 1
  %13 = alloca i32, align 4
  store ptr %0, ptr %5, align 8
  store ptr %1, ptr %6, align 8
  store ptr %2, ptr %7, align 8
  br label %14

14:                                               ; preds = %3
  br label %15

15:                                               ; preds = %14
  br label %16

16:                                               ; preds = %15
  br label %17

17:                                               ; preds = %16
  br label %18

18:                                               ; preds = %17
  br label %19

19:                                               ; preds = %18
  call void @llvm.lifetime.start.p0(i64 8, ptr %8) #5
  store ptr null, ptr %8, align 8
  call void @llvm.lifetime.start.p0(i64 8, ptr %9) #5
  store ptr null, ptr %9, align 8
  call void @llvm.lifetime.start.p0(i64 1, ptr %10) #5
  store i8 0, ptr %10, align 1
  call void @llvm.lifetime.start.p0(i64 1, ptr %11) #5
  %20 = load ptr, ptr %6, align 8
  %21 = load i8, ptr %20, align 1
  store i8 %21, ptr %11, align 1
  call void @llvm.lifetime.start.p0(i64 1, ptr %12) #5
  %22 = load ptr, ptr %5, align 8
  %23 = load i8, ptr %22, align 1
  store i8 %23, ptr %12, align 1
  br label %24

24:                                               ; preds = %92, %19
  %25 = load i8, ptr %11, align 1
  %26 = icmp ne i8 %25, 0
  br i1 %26, label %27, label %93

27:                                               ; preds = %24
  %28 = load i8, ptr %12, align 1
  %29 = sext i8 %28 to i32
  %30 = icmp eq i32 %29, 42
  br i1 %30, label %31, label %38

31:                                               ; preds = %27
  %32 = load ptr, ptr %6, align 8
  store ptr %32, ptr %8, align 8
  %33 = load ptr, ptr %5, align 8
  %34 = getelementptr inbounds nuw i8, ptr %33, i32 1
  store ptr %34, ptr %5, align 8
  store ptr %34, ptr %9, align 8
  %35 = load i8, ptr %11, align 1
  store i8 %35, ptr %10, align 1
  %36 = load ptr, ptr %5, align 8
  %37 = load i8, ptr %36, align 1
  store i8 %37, ptr %12, align 1
  br label %92

38:                                               ; preds = %27
  %39 = load i8, ptr %12, align 1
  %40 = sext i8 %39 to i32
  %41 = load i8, ptr %11, align 1
  %42 = sext i8 %41 to i32
  %43 = icmp eq i32 %40, %42
  br i1 %43, label %44, label %56

44:                                               ; preds = %38
  %45 = load i8, ptr %12, align 1
  %46 = sext i8 %45 to i32
  %47 = icmp eq i32 %46, 47
  br i1 %47, label %48, label %49

48:                                               ; preds = %44
  store ptr null, ptr %9, align 8
  store ptr null, ptr %8, align 8
  br label %49

49:                                               ; preds = %48, %44
  %50 = load ptr, ptr %6, align 8
  %51 = getelementptr inbounds nuw i8, ptr %50, i32 1
  store ptr %51, ptr %6, align 8
  %52 = load i8, ptr %51, align 1
  store i8 %52, ptr %11, align 1
  %53 = load ptr, ptr %5, align 8
  %54 = getelementptr inbounds nuw i8, ptr %53, i32 1
  store ptr %54, ptr %5, align 8
  %55 = load i8, ptr %54, align 1
  store i8 %55, ptr %12, align 1
  br label %91

56:                                               ; preds = %38
  %57 = load i8, ptr %12, align 1
  %58 = sext i8 %57 to i32
  %59 = icmp eq i32 %58, 63
  br i1 %59, label %60, label %71

60:                                               ; preds = %56
  %61 = load i8, ptr %11, align 1
  %62 = sext i8 %61 to i32
  %63 = icmp ne i32 %62, 47
  br i1 %63, label %64, label %71

64:                                               ; preds = %60
  %65 = load ptr, ptr %6, align 8
  %66 = getelementptr inbounds nuw i8, ptr %65, i32 1
  store ptr %66, ptr %6, align 8
  %67 = load i8, ptr %66, align 1
  store i8 %67, ptr %11, align 1
  %68 = load ptr, ptr %5, align 8
  %69 = getelementptr inbounds nuw i8, ptr %68, i32 1
  store ptr %69, ptr %5, align 8
  %70 = load i8, ptr %69, align 1
  store i8 %70, ptr %12, align 1
  br label %90

71:                                               ; preds = %60, %56
  %72 = load ptr, ptr %9, align 8
  %73 = icmp ne ptr %72, null
  br i1 %73, label %74, label %78

74:                                               ; preds = %71
  %75 = load i8, ptr %10, align 1
  %76 = sext i8 %75 to i32
  %77 = icmp eq i32 %76, 47
  br i1 %77, label %78, label %80

78:                                               ; preds = %74, %71
  %79 = load ptr, ptr %7, align 8
  store i8 0, ptr %79, align 1
  store i1 false, ptr %4, align 1
  store i32 1, ptr %13, align 4
  br label %117

80:                                               ; preds = %74
  %81 = load ptr, ptr %8, align 8
  %82 = getelementptr inbounds nuw i8, ptr %81, i32 1
  store ptr %82, ptr %8, align 8
  store ptr %82, ptr %6, align 8
  %83 = load ptr, ptr %9, align 8
  store ptr %83, ptr %5, align 8
  %84 = load i8, ptr %11, align 1
  store i8 %84, ptr %10, align 1
  %85 = load ptr, ptr %6, align 8
  %86 = load i8, ptr %85, align 1
  store i8 %86, ptr %11, align 1
  %87 = load ptr, ptr %5, align 8
  %88 = load i8, ptr %87, align 1
  store i8 %88, ptr %12, align 1
  br label %89

89:                                               ; preds = %80
  br label %90

90:                                               ; preds = %89, %64
  br label %91

91:                                               ; preds = %90, %49
  br label %92

92:                                               ; preds = %91, %31
  br label %24, !llvm.loop !11

93:                                               ; preds = %24
  br label %94

94:                                               ; preds = %98, %93
  %95 = load i8, ptr %12, align 1
  %96 = sext i8 %95 to i32
  %97 = icmp eq i32 %96, 42
  br i1 %97, label %98, label %102

98:                                               ; preds = %94
  %99 = load ptr, ptr %5, align 8
  %100 = getelementptr inbounds nuw i8, ptr %99, i32 1
  store ptr %100, ptr %5, align 8
  %101 = load i8, ptr %100, align 1
  store i8 %101, ptr %12, align 1
  br label %94, !llvm.loop !12

102:                                              ; preds = %94
  %103 = load i8, ptr %12, align 1
  %104 = sext i8 %103 to i32
  %105 = icmp eq i32 %104, 47
  br i1 %105, label %110, label %106

106:                                              ; preds = %102
  %107 = load i8, ptr %12, align 1
  %108 = sext i8 %107 to i32
  %109 = icmp eq i32 %108, 0
  br label %110

110:                                              ; preds = %106, %102
  %111 = phi i1 [ true, %102 ], [ %109, %106 ]
  %112 = load ptr, ptr %7, align 8
  %113 = zext i1 %111 to i8
  store i8 %113, ptr %112, align 1
  %114 = load i8, ptr %12, align 1
  %115 = sext i8 %114 to i32
  %116 = icmp eq i32 %115, 0
  store i1 %116, ptr %4, align 1
  store i32 1, ptr %13, align 4
  br label %117

117:                                              ; preds = %110, %78
  call void @llvm.lifetime.end.p0(i64 1, ptr %12) #5
  call void @llvm.lifetime.end.p0(i64 1, ptr %11) #5
  call void @llvm.lifetime.end.p0(i64 1, ptr %10) #5
  call void @llvm.lifetime.end.p0(i64 8, ptr %9) #5
  call void @llvm.lifetime.end.p0(i64 8, ptr %8) #5
  %118 = load i1, ptr %4, align 1
  ret i1 %118
}