; Function Attrs: nofree norecurse nosync nounwind memory(read, argmem: readwrite, inaccessiblemem: none) uwtable
define internal zeroext i1 @WildcardMatch(ptr noundef readonly captures(address) %0, ptr noundef readonly captures(none) %1, ptr noundef writeonly captures(none) %2) #5 {
  %4 = load i8, ptr %1, align 1
  %.058 = load i8, ptr %0, align 1
  %.not59 = icmp eq i8 %4, 0
  br i1 %.not59, label %.preheader, label %.lr.ph

.preheader:                                       ; preds = %29, %3
  %.049.lcssa = phi ptr [ %0, %3 ], [ %.150, %29 ]
  %.0.lcssa = phi i8 [ %.058, %3 ], [ %.0, %29 ]
  %5 = icmp eq i8 %.0.lcssa, 42
  br i1 %5, label %.lr.ph69, label %._crit_edge

.lr.ph:                                           ; preds = %3, %29
  %.066 = phi i8 [ %.0, %29 ], [ %.058, %3 ]
  %.03665 = phi i8 [ %.137, %29 ], [ %4, %3 ]
  %.03864 = phi i8 [ %.139, %29 ], [ 0, %3 ]
  %.04063 = phi ptr [ %.141, %29 ], [ null, %3 ]
  %.04362 = phi ptr [ %.144, %29 ], [ null, %3 ]
  %.04761 = phi ptr [ %.148, %29 ], [ %1, %3 ]
  %.04960 = phi ptr [ %.150, %29 ], [ %0, %3 ]
  %6 = icmp eq i8 %.066, 42
  br i1 %6, label %7, label %9

7:                                                ; preds = %.lr.ph
  %8 = getelementptr inbounds nuw i8, ptr %.04960, i64 1
  br label %29

9:                                                ; preds = %.lr.ph
  %10 = icmp eq i8 %.066, %.03665
  br i1 %10, label %11, label %16

11:                                               ; preds = %9
  %12 = icmp eq i8 %.066, 47
  %spec.select = select i1 %12, ptr null, ptr %.04362
  %spec.select55 = select i1 %12, ptr null, ptr %.04063
  %13 = getelementptr inbounds nuw i8, ptr %.04761, i64 1
  %14 = load i8, ptr %13, align 1
  %15 = getelementptr inbounds nuw i8, ptr %.04960, i64 1
  br label %29

16:                                               ; preds = %9
  %17 = icmp eq i8 %.066, 63
  %18 = icmp ne i8 %.03665, 47
  %or.cond = and i1 %18, %17
  br i1 %or.cond, label %19, label %23

19:                                               ; preds = %16
  %20 = getelementptr inbounds nuw i8, ptr %.04761, i64 1
  %21 = load i8, ptr %20, align 1
  %22 = getelementptr inbounds nuw i8, ptr %.04960, i64 1
  br label %29

23:                                               ; preds = %16
  %24 = icmp eq ptr %.04063, null
  %25 = icmp eq i8 %.03864, 47
  %or.cond5 = select i1 %24, i1 true, i1 %25
  br i1 %or.cond5, label %.loopexit, label %26

26:                                               ; preds = %23
  %27 = getelementptr inbounds nuw i8, ptr %.04362, i64 1
  %28 = load i8, ptr %27, align 1
  br label %29

29:                                               ; preds = %11, %26, %19, %7
  %.150 = phi ptr [ %8, %7 ], [ %15, %11 ], [ %22, %19 ], [ %.04063, %26 ]
  %.148 = phi ptr [ %.04761, %7 ], [ %13, %11 ], [ %20, %19 ], [ %27, %26 ]
  %.144 = phi ptr [ %.04761, %7 ], [ %spec.select, %11 ], [ %.04362, %19 ], [ %27, %26 ]
  %.141 = phi ptr [ %8, %7 ], [ %spec.select55, %11 ], [ %.04063, %19 ], [ %.04063, %26 ]
  %.139 = phi i8 [ %.03665, %7 ], [ %.03864, %11 ], [ %.03864, %19 ], [ %.03665, %26 ]
  %.137 = phi i8 [ %.03665, %7 ], [ %14, %11 ], [ %21, %19 ], [ %28, %26 ]
  %.0 = load i8, ptr %.150, align 1
  %.not = icmp eq i8 %.137, 0
  br i1 %.not, label %.preheader, label %.lr.ph, !llvm.loop !9

.lr.ph69:                                         ; preds = %.preheader, %.lr.ph69
  %.25168 = phi ptr [ %30, %.lr.ph69 ], [ %.049.lcssa, %.preheader ]
  %30 = getelementptr inbounds nuw i8, ptr %.25168, i64 1
  %31 = load i8, ptr %30, align 1
  %32 = icmp eq i8 %31, 42
  br i1 %32, label %.lr.ph69, label %._crit_edge, !llvm.loop !10

._crit_edge:                                      ; preds = %.lr.ph69, %.preheader
  %.2.lcssa = phi i8 [ %.0.lcssa, %.preheader ], [ %31, %.lr.ph69 ]
  %33 = icmp eq i8 %.2.lcssa, 47
  %34 = icmp eq i8 %.2.lcssa, 0
  %35 = or i1 %33, %34
  %36 = zext i1 %35 to i8
  br label %.loopexit

.loopexit:                                        ; preds = %23, %._crit_edge
  %storemerge = phi i8 [ %36, %._crit_edge ], [ 0, %23 ]
  %.046 = phi i1 [ %34, %._crit_edge ], [ false, %23 ]
  store i8 %storemerge, ptr %2, align 1
  ret i1 %.046
}